target datalayout = "e-m:e-p270:32:32-p271:32:32-p272:64:64-i64:64-i128:128-f80:128-n8:16:32:64-S128"
target triple = "x86_64-pc-linux-gnu"

%"class.datalog::rule_properties" = type <{ ptr, ptr, ptr, ptr, %"class.datatype::util", %"class.datalog::dl_decl_util", %class.arith_util, %class.bv_util, %class.array_util, %"class.recfun::util", i8, [7 x i8], ptr, %class.obj_map, %class.obj_map.1, %class.ptr_vector, %class.ptr_vector, %class.ptr_vector, i8, i8, [6 x i8] }>
%"class.datatype::util" = type { ptr, i32, ptr }
%"class.datalog::dl_decl_util" = type <{ ptr, %class.scoped_ptr, %class.scoped_ptr.0, i32, [4 x i8] }>
%class.scoped_ptr = type { ptr }
%class.scoped_ptr.0 = type { ptr }
%class.arith_util = type { ptr, ptr }
%class.bv_util = type { %class.bv_recognizers, ptr, ptr }
%class.bv_recognizers = type { i32 }
%class.array_util = type { %class.array_recognizers, ptr }
%class.array_recognizers = type { i32 }
%"class.recfun::util" = type { ptr, i32, ptr }
%class.obj_map = type { %class.core_hashtable }
%class.core_hashtable = type <{ ptr, i32, i32, i32, [4 x i8] }>
%class.obj_map.1 = type { %class.core_hashtable.2 }
%class.core_hashtable.2 = type <{ ptr, i32, i32, i32, [4 x i8] }>
%class.ptr_vector = type { %class.vector }
%class.vector = type { ptr }
%class.expr_sparse_mark = type { %class.obj_hashtable }
%class.obj_hashtable = type { %class.core_hashtable.base.46, [4 x i8] }
%class.core_hashtable.base.46 = type <{ ptr, i32, i32, i32 }>
%struct.obj_ptr_hash.45 = type { i8 }
%struct.ptr_eq = type { i8 }
%class.core_hashtable.44 = type <{ ptr, i32, i32, i32, [4 x i8] }>
%class.obj_hash_entry = type { ptr }

; Function Attrs: mustprogress nounwind uwtable
define linkonce_odr hidden void @_ZNSt12_Destroy_auxILb1EE9__destroyIP14obj_hash_entryI4exprEEEvT_S6_(ptr noundef %0, ptr noundef %1) #5 comdat align 2 {
  %3 = alloca ptr, align 8
  %4 = alloca ptr, align 8
  store ptr %0, ptr %3, align 8, !tbaa !361
  store ptr %1, ptr %4, align 8, !tbaa !361
  ret void
}

; Function Attrs: inlinehint mustprogress nounwind uwtable
define linkonce_odr hidden void @_ZN14obj_hash_entryI4exprEC2Ev(ptr noundef nonnull align 8 dereferenceable(8) %0) unnamed_addr #6 comdat align 2 {
  %2 = alloca ptr, align 8
  store ptr %0, ptr %2, align 8, !tbaa !361
  %3 = load ptr, ptr %2, align 8
  %4 = getelementptr inbounds nuw %class.obj_hash_entry, ptr %3, i32 0, i32 0
  store ptr null, ptr %4, align 8, !tbaa !363
  ret void
}

; Function Attrs: inlinehint mustprogress uwtable
define linkonce_odr hidden void @_ZSt8_DestroyIP14obj_hash_entryI4exprEEvT_S4_(ptr noundef %0, ptr noundef %1) #8 comdat {
  %3 = alloca ptr, align 8
  %4 = alloca ptr, align 8
  store ptr %0, ptr %3, align 8, !tbaa !361
  store ptr %1, ptr %4, align 8, !tbaa !361
  %5 = load ptr, ptr %3, align 8, !tbaa !361
  %6 = load ptr, ptr %4, align 8, !tbaa !361
  call void @_ZNSt12_Destroy_auxILb1EE9__destroyIP14obj_hash_entryI4exprEEEvT_S6_(ptr noundef %5, ptr noundef %6)
  ret void
}

; Function Attrs: inlinehint mustprogress nounwind uwtable
define linkonce_odr hidden void @_ZSt18_Construct_novalueI14obj_hash_entryI4exprEEvPT_(ptr noundef %0) #6 comdat {
  %2 = alloca ptr, align 8
  store ptr %0, ptr %2, align 8, !tbaa !361
  %3 = load ptr, ptr %2, align 8, !tbaa !361
  call void @_ZN14obj_hash_entryI4exprEC2Ev(ptr noundef nonnull align 8 dereferenceable(8) %3) #3
  ret void
}

; Function Attrs: mustprogress uwtable
define linkonce_odr hidden noundef ptr @_ZNSt35__uninitialized_default_novalue_n_1ILb0EE26__uninit_default_novalue_nIP14obj_hash_entryI4exprEjEET_S6_T0_(ptr noundef %0, i32 noundef %1) #4 comdat align 2 personality ptr @__gxx_personality_v0 {
  %3 = alloca ptr, align 8
  %4 = alloca i32, align 4
  %5 = alloca ptr, align 8
  %6 = alloca ptr, align 8
  %7 = alloca i32, align 4
  store ptr %0, ptr %3, align 8, !tbaa !361
  store i32 %1, ptr %4, align 4, !tbaa !64
  call void @llvm.lifetime.start.p0(i64 8, ptr %5) #3
  %8 = load ptr, ptr %3, align 8, !tbaa !361
  store ptr %8, ptr %5, align 8, !tbaa !361
  br label %9

9:                                                ; preds = %15, %2
  %10 = load i32, ptr %4, align 4, !tbaa !64
  %11 = icmp ugt i32 %10, 0
  br i1 %11, label %12, label %30

12:                                               ; preds = %9
  %13 = load ptr, ptr %5, align 8, !tbaa !361
  invoke void @_ZSt18_Construct_novalueI14obj_hash_entryI4exprEEvPT_(ptr noundef %13)
          to label %14 unwind label %20

14:                                               ; preds = %12
  br label %15

15:                                               ; preds = %14
  %16 = load i32, ptr %4, align 4, !tbaa !64
  %17 = add i32 %16, -1
  store i32 %17, ptr %4, align 4, !tbaa !64
  %18 = load ptr, ptr %5, align 8, !tbaa !361
  %19 = getelementptr inbounds nuw %class.obj_hash_entry, ptr %18, i32 1
  store ptr %19, ptr %5, align 8, !tbaa !361
  br label %9, !llvm.loop !362

20:                                               ; preds = %12
  %21 = landingpad { ptr, i32 }
          catch ptr null
  %22 = extractvalue { ptr, i32 } %21, 0
  store ptr %22, ptr %6, align 8
  %23 = extractvalue { ptr, i32 } %21, 1
  store i32 %23, ptr %7, align 4
  br label %24

24:                                               ; preds = %20
  %25 = load ptr, ptr %6, align 8
  %26 = call ptr @__cxa_begin_catch(ptr %25) #3
  %27 = load ptr, ptr %3, align 8, !tbaa !361
  %28 = load ptr, ptr %5, align 8, !tbaa !361
  invoke void @_ZSt8_DestroyIP14obj_hash_entryI4exprEEvT_S4_(ptr noundef %27, ptr noundef %28)
          to label %29 unwind label %32

29:                                               ; preds = %24
  invoke void @__cxa_rethrow() #20
          to label %46 unwind label %32

30:                                               ; preds = %9
  %31 = load ptr, ptr %5, align 8, !tbaa !361
  call void @llvm.lifetime.end.p0(i64 8, ptr %5) #3
  ret ptr %31

32:                                               ; preds = %29, %24
  %33 = landingpad { ptr, i32 }
          cleanup
  %34 = extractvalue { ptr, i32 } %33, 0
  store ptr %34, ptr %6, align 8
  %35 = extractvalue { ptr, i32 } %33, 1
  store i32 %35, ptr %7, align 4
  invoke void @__cxa_end_catch()
          to label %36 unwind label %43

36:                                               ; preds = %32
  call void @llvm.lifetime.end.p0(i64 8, ptr %5) #3
  br label %38

37:                                               ; No predecessors!
  unreachable

38:                                               ; preds = %36
  %39 = load ptr, ptr %6, align 8
  %40 = load i32, ptr %7, align 4
  %41 = insertvalue { ptr, i32 } poison, ptr %39, 0
  %42 = insertvalue { ptr, i32 } %41, i32 %40, 1
  resume { ptr, i32 } %42

43:                                               ; preds = %32
  %44 = landingpad { ptr, i32 }
          catch ptr null
  %45 = extractvalue { ptr, i32 } %44, 0
  call void @__clang_call_terminate(ptr %45) #21
  unreachable

46:                                               ; preds = %29
  unreachable
}

; Function Attrs: inlinehint mustprogress uwtable
define linkonce_odr hidden noundef ptr @_ZSt33__uninitialized_default_novalue_nIP14obj_hash_entryI4exprEjET_S4_T0_(ptr noundef %0, i32 noundef %1) #8 comdat {
  %3 = alloca ptr, align 8
  %4 = alloca i32, align 4
  store ptr %0, ptr %3, align 8, !tbaa !361
  store i32 %1, ptr %4, align 4, !tbaa !64
  %5 = load ptr, ptr %3, align 8, !tbaa !361
  %6 = load i32, ptr %4, align 4, !tbaa !64
  %7 = call noundef ptr @_ZNSt35__uninitialized_default_novalue_n_1ILb0EE26__uninit_default_novalue_nIP14obj_hash_entryI4exprEjEET_S6_T0_(ptr noundef %5, i32 noundef %6)
  ret ptr %7
}

; Function Attrs: inlinehint mustprogress uwtable
define linkonce_odr hidden noundef ptr @_ZSt33uninitialized_default_construct_nIP14obj_hash_entryI4exprEjET_S4_T0_(ptr noundef %0, i32 noundef %1) #8 comdat {
  %3 = alloca ptr, align 8
  %4 = alloca i32, align 4
  store ptr %0, ptr %3, align 8, !tbaa !361
  store i32 %1, ptr %4, align 4, !tbaa !64
  %5 = load ptr, ptr %3, align 8, !tbaa !361
  %6 = load i32, ptr %4, align 4, !tbaa !64
  %7 = call noundef ptr @_ZSt33__uninitialized_default_novalue_nIP14obj_hash_entryI4exprEjET_S4_T0_(ptr noundef %5, i32 noundef %6)
  ret ptr %7
}

; Function Attrs: mustprogress uwtable
define linkonce_odr hidden noalias noundef ptr @_Z10alloc_vectI14obj_hash_entryI4exprEEPT_j(i32 noundef %0) #4 comdat {
  %2 = alloca i32, align 4
  %3 = alloca ptr, align 8
  store i32 %0, ptr %2, align 4, !tbaa !64
  call void @llvm.lifetime.start.p0(i64 8, ptr %3) #3
  %4 = load i32, ptr %2, align 4, !tbaa !64
  %5 = zext i32 %4 to i64
  %6 = mul i64 8, %5
  %7 = call noalias noundef ptr @_ZN6memory8allocateEm(i64 noundef %6)
  store ptr %7, ptr %3, align 8, !tbaa !361
  %8 = load ptr, ptr %3, align 8, !tbaa !361
  %9 = load i32, ptr %2, align 4, !tbaa !64
  %10 = call noundef ptr @_ZSt33uninitialized_default_construct_nIP14obj_hash_entryI4exprEjET_S4_T0_(ptr noundef %8, i32 noundef %9)
  %11 = load ptr, ptr %3, align 8, !tbaa !361
  call void @llvm.lifetime.end.p0(i64 8, ptr %3) #3
  ret ptr %11
}

; Function Attrs: mustprogress uwtable
define linkonce_odr hidden noundef ptr @_ZN14core_hashtableI14obj_hash_entryI4exprE12obj_ptr_hashIS1_E6ptr_eqIS1_EE11alloc_tableEj(ptr noundef nonnull align 8 dereferenceable(20) %0, i32 noundef %1) #4 comdat align 2 {
  %3 = alloca ptr, align 8
  %4 = alloca i32, align 4
  %5 = alloca ptr, align 8
  store ptr %0, ptr %3, align 8, !tbaa !349
  store i32 %1, ptr %4, align 4, !tbaa !64
  call void @llvm.lifetime.start.p0(i64 8, ptr %5) #3
  %6 = load i32, ptr %4, align 4, !tbaa !64
  %7 = call noalias noundef ptr @_Z10alloc_vectI14obj_hash_entryI4exprEEPT_j(i32 noundef %6)
  store ptr %7, ptr %5, align 8, !tbaa !361
  %8 = load ptr, ptr %5, align 8, !tbaa !361
  call void @llvm.lifetime.end.p0(i64 8, ptr %5) #3
  ret ptr %8
}

; Function Attrs: mustprogress uwtable
define linkonce_odr hidden void @_ZN14core_hashtableI14obj_hash_entryI4exprE12obj_ptr_hashIS1_E6ptr_eqIS1_EEC2EjRKS4_RKS6_(ptr noundef nonnull align 8 dereferenceable(20) %0, i32 noundef %1, ptr noundef nonnull align 1 dereferenceable(1) %2, ptr noundef nonnull align 1 dereferenceable(1) %3) unnamed_addr #4 comdat align 2 {
  %5 = alloca ptr, align 8
  %6 = alloca i32, align 4
  %7 = alloca ptr, align 8
  %8 = alloca ptr, align 8
  store ptr %0, ptr %5, align 8, !tbaa !349
  store i32 %1, ptr %6, align 4, !tbaa !64
  store ptr %2, ptr %7, align 8, !tbaa !351
  store ptr %3, ptr %8, align 8, !tbaa !353
  %9 = load ptr, ptr %5, align 8
  %10 = load i32, ptr %6, align 4, !tbaa !64
  %11 = call noundef ptr @_ZN14core_hashtableI14obj_hash_entryI4exprE12obj_ptr_hashIS1_E6ptr_eqIS1_EE11alloc_tableEj(ptr noundef nonnull align 8 dereferenceable(20) %9, i32 noundef %10)
  %12 = getelementptr inbounds nuw %class.core_hashtable.44, ptr %9, i32 0, i32 0
  store ptr %11, ptr %12, align 8, !tbaa !355
  %13 = load i32, ptr %6, align 4, !tbaa !64
  %14 = getelementptr inbounds nuw %class.core_hashtable.44, ptr %9, i32 0, i32 1
  store i32 %13, ptr %14, align 8, !tbaa !358
  %15 = getelementptr inbounds nuw %class.core_hashtable.44, ptr %9, i32 0, i32 2
  store i32 0, ptr %15, align 4, !tbaa !359
  %16 = getelementptr inbounds nuw %class.core_hashtable.44, ptr %9, i32 0, i32 3
  store i32 0, ptr %16, align 8, !tbaa !360
  ret void
}

; Function Attrs: mustprogress uwtable
define linkonce_odr hidden void @_ZN13obj_hashtableI4exprEC2Ej(ptr noundef nonnull align 8 dereferenceable(20) %0, i32 noundef %1) unnamed_addr #4 comdat align 2 {
  %3 = alloca ptr, align 8
  %4 = alloca i32, align 4
  %5 = alloca %struct.obj_ptr_hash.45, align 1
  %6 = alloca %struct.ptr_eq, align 1
  store ptr %0, ptr %3, align 8, !tbaa !347
  store i32 %1, ptr %4, align 4, !tbaa !64
  %7 = load ptr, ptr %3, align 8
  %8 = load i32, ptr %4, align 4, !tbaa !64
  call void @llvm.lifetime.start.p0(i64 1, ptr %5) #3
  call void @llvm.lifetime.start.p0(i64 1, ptr %6) #3
  call void @_ZN14core_hashtableI14obj_hash_entryI4exprE12obj_ptr_hashIS1_E6ptr_eqIS1_EEC2EjRKS4_RKS6_(ptr noundef nonnull align 8 dereferenceable(20) %7, i32 noundef %8, ptr noundef nonnull align 1 dereferenceable(1) %5, ptr noundef nonnull align 1 dereferenceable(1) %6)
  call void @llvm.lifetime.end.p0(i64 1, ptr %6) #3
  call void @llvm.lifetime.end.p0(i64 1, ptr %5) #3
  ret void
}

; Function Attrs: inlinehint mustprogress uwtable
define linkonce_odr hidden void @_ZN16expr_sparse_markC2Ev(ptr noundef nonnull align 8 dereferenceable(24) %0) unnamed_addr #8 comdat align 2 {
  %2 = alloca ptr, align 8
  store ptr %0, ptr %2, align 8, !tbaa !59
  %3 = load ptr, ptr %2, align 8
  %4 = getelementptr inbounds nuw %class.expr_sparse_mark, ptr %3, i32 0, i32 0
  call void @_ZN13obj_hashtableI4exprEC2Ej(ptr noundef nonnull align 8 dereferenceable(20) %4, i32 noundef 8)
  ret void
}

; Function Attrs: mustprogress uwtable
define hidden void @_ZN7datalog15rule_properties7collectERKNS_8rule_setE(ptr noundef nonnull align 8 dereferenceable(258) %0, ptr noundef nonnull align 8 dereferenceable(248) %1) #4 align 2 personality ptr @__gxx_personality_v0 {
  %3 = alloca ptr, align 8
  %4 = alloca ptr, align 8
  %5 = alloca %class.expr_sparse_mark, align 8
  %6 = alloca ptr, align 8
  %7 = alloca i32, align 4
  store ptr %0, ptr %3, align 8, !tbaa !3
  store ptr %1, ptr %4, align 8, !tbaa !57
  %8 = load ptr, ptr %3, align 8
  call void @_ZN7datalog15rule_properties5resetEv(ptr noundef nonnull align 8 dereferenceable(258) %8)
  %9 = getelementptr inbounds nuw %"class.datalog::rule_properties", ptr %8, i32 0, i32 18
  store i8 1, ptr %9, align 8, !tbaa !47
  call void @llvm.lifetime.start.p0(i64 24, ptr %5) #3
  call void @_ZN16expr_sparse_markC2Ev(ptr noundef nonnull align 8 dereferenceable(24) %5)
  %10 = load ptr, ptr %4, align 8, !tbaa !57
  invoke void @_ZN7datalog15rule_properties11visit_rulesER16expr_sparse_markRKNS_8rule_setE(ptr noundef nonnull align 8 dereferenceable(258) %8, ptr noundef nonnull align 8 dereferenceable(24) %5, ptr noundef nonnull align 8 dereferenceable(248) %10)
          to label %11 unwind label %12

11:                                               ; preds = %2
  call void @_ZN16expr_sparse_markD2Ev(ptr noundef nonnull align 8 dereferenceable(24) %5) #3
  call void @llvm.lifetime.end.p0(i64 24, ptr %5) #3
  ret void

12:                                               ; preds = %2
  %13 = landingpad { ptr, i32 }
          cleanup
  %14 = extractvalue { ptr, i32 } %13, 0
  store ptr %14, ptr %6, align 8
  %15 = extractvalue { ptr, i32 } %13, 1
  store i32 %15, ptr %7, align 4
  call void @_ZN16expr_sparse_markD2Ev(ptr noundef nonnull align 8 dereferenceable(24) %5) #3
  call void @llvm.lifetime.end.p0(i64 24, ptr %5) #3
  br label %16

16:                                               ; preds = %12
  %17 = load ptr, ptr %6, align 8
  %18 = load i32, ptr %7, align 4
  %19 = insertvalue { ptr, i32 } poison, ptr %17, 0
  %20 = insertvalue { ptr, i32 } %19, i32 %18, 1
  resume { ptr, i32 } %20
}