; Function Attrs: mustprogress uwtable
define hidden void @_ZN7datalog15rule_properties7collectERKNS_8rule_setE(ptr noundef nonnull align 8 dereferenceable(258) %0, ptr noundef nonnull readonly align 8 captures(none) dereferenceable(248) %1) local_unnamed_addr #3 align 2 personality ptr @__gxx_personality_v0 {
  %3 = alloca %class.expr_sparse_mark, align 8
  tail call void @_ZN7datalog15rule_properties5resetEv(ptr noundef nonnull align 8 dereferenceable(258) %0)
  %4 = getelementptr inbounds nuw i8, ptr %0, i64 256
  store i8 1, ptr %4, align 8, !tbaa !56
  call void @llvm.lifetime.start.p0(i64 24, ptr nonnull %3) #19
  %5 = tail call noalias noundef ptr @_ZN6memory8allocateEm(i64 noundef 64)
  tail call void @llvm.memset.p0.i64(ptr noundef nonnull align 8 dereferenceable(64) %5, i8 0, i64 64, i1 false), !tbaa !57
  store ptr %5, ptr %3, align 8, !tbaa !60
  %6 = getelementptr inbounds nuw i8, ptr %3, i64 8
  store i32 8, ptr %6, align 8, !tbaa !63
  %7 = getelementptr inbounds nuw i8, ptr %3, i64 12
  store i32 0, ptr %7, align 4, !tbaa !64
  %8 = getelementptr inbounds nuw i8, ptr %3, i64 16
  store i32 0, ptr %8, align 8, !tbaa !65
  invoke void @_ZN7datalog15rule_properties11visit_rulesER16expr_sparse_markRKNS_8rule_setE(ptr noundef nonnull align 8 dereferenceable(258) %0, ptr noundef nonnull align 8 dereferenceable(24) %3, ptr noundef nonnull align 8 dereferenceable(248) %1)
          to label %9 unwind label %16

9:                                                ; preds = %2
  %10 = load ptr, ptr %3, align 8, !tbaa !60
  %11 = icmp eq ptr %10, null
  br i1 %11, label %_ZN16expr_sparse_markD2Ev.exit, label %12

12:                                               ; preds = %9
  invoke void @_ZN6memory10deallocateEPv(ptr noundef nonnull %10)
          to label %_ZN16expr_sparse_markD2Ev.exit unwind label %13

13:                                               ; preds = %12
  %14 = landingpad { ptr, i32 }
          catch ptr null
  %15 = extractvalue { ptr, i32 } %14, 0
  call void @__clang_call_terminate(ptr %15) #20
  unreachable

_ZN16expr_sparse_markD2Ev.exit:                   ; preds = %9, %12
  call void @llvm.lifetime.end.p0(i64 24, ptr nonnull %3) #19
  ret void

16:                                               ; preds = %2
  %17 = landingpad { ptr, i32 }
          cleanup
  call void @_ZN16expr_sparse_markD2Ev(ptr noundef nonnull align 8 dereferenceable(24) %3) #19
  call void @llvm.lifetime.end.p0(i64 24, ptr nonnull %3) #19
  resume { ptr, i32 } %17
}